; Function Attrs: mustprogress nounwind uwtable
define internal fastcc i64 @_ZL20getMinimalExtentFromRKN4llvm5ValueERKNS_12LocationSizeERKNS_10DataLayoutEb(ptr noundef nonnull align 8 dereferenceable(24) %0, ptr nocapture noundef nonnull readonly align 8 dereferenceable(8) %1, ptr noundef nonnull align 8 dereferenceable(512) %2, i1 noundef zeroext %3) unnamed_addr #0 {
  %5 = alloca i8, align 1
  %6 = alloca i8, align 1
  %7 = call noundef i64 @_ZNK4llvm5Value30getPointerDereferenceableBytesERKNS_10DataLayoutERbS4_(ptr noundef nonnull align 8 dereferenceable(24) %0, ptr noundef nonnull align 8 dereferenceable(512) %2, ptr noundef nonnull align 1 dereferenceable(1) %5, ptr noundef nonnull align 1 dereferenceable(1) %6) #22
  %8 = load i8, ptr %5, align 1
  %9 = trunc i8 %8 to i1
  %brmerge.demorgan = and i1 %3, %9
  %10 = select i1 %brmerge.demorgan, i64 0, i64 %7
  %11 = load i64, ptr %1, align 8
  %12 = and i64 %11, 4611686018427387903
  %.sroa.speculated = call i64 @llvm.umax.i64(i64 %10, i64 %12)
  %13 = icmp slt i64 %11, 0
  %.0 = select i1 %13, i64 %10, i64 %.sroa.speculated
  ret i64 %.0
}